target datalayout = "e-m:e-p270:32:32-p271:32:32-p272:64:64-i64:64-i128:128-f80:128-n8:16:32:64-S128"
target triple = "x86_64-pc-linux-gnu"

%struct.Vec_Int_t_ = type { i32, i32, ptr }
%struct.Abc_Obj_t_ = type { ptr, ptr, i32, i32, %struct.Vec_Int_t_, %struct.Vec_Int_t_, %union.anon, %union.anon.0 }
%union.anon = type { ptr }
%union.anon.0 = type { ptr }

; Function Attrs: inlinehint nounwind uwtable
define internal i32 @Abc_CubeContain(ptr noundef %0, ptr noundef %1, i32 noundef %2) #2 {
  %4 = alloca i32, align 4
  %5 = alloca ptr, align 8
  %6 = alloca ptr, align 8
  %7 = alloca i32, align 4
  %8 = alloca i32, align 4
  %9 = alloca i32, align 4
  %10 = alloca i32, align 4
  %11 = alloca i32, align 4
  store ptr %0, ptr %5, align 8, !tbaa !32
  store ptr %1, ptr %6, align 8, !tbaa !32
  store i32 %2, ptr %7, align 4, !tbaa !12
  call void @llvm.lifetime.start.p0(i64 4, ptr %8) #10
  call void @llvm.lifetime.start.p0(i64 4, ptr %9) #10
  store i32 1, ptr %9, align 4, !tbaa !12
  call void @llvm.lifetime.start.p0(i64 4, ptr %10) #10
  store i32 1, ptr %10, align 4, !tbaa !12
  store i32 0, ptr %8, align 4, !tbaa !12
  br label %12

12:                                               ; preds = %59, %3
  %13 = load i32, ptr %8, align 4, !tbaa !12
  %14 = load i32, ptr %7, align 4, !tbaa !12
  %15 = icmp slt i32 %13, %14
  br i1 %15, label %16, label %62

16:                                               ; preds = %12
  %17 = load ptr, ptr %5, align 8, !tbaa !32
  %18 = load i32, ptr %8, align 4, !tbaa !12
  %19 = sext i32 %18 to i64
  %20 = getelementptr inbounds i8, ptr %17, i64 %19
  %21 = load i8, ptr %20, align 1, !tbaa !31
  %22 = sext i8 %21 to i32
  %23 = load ptr, ptr %6, align 8, !tbaa !32
  %24 = load i32, ptr %8, align 4, !tbaa !12
  %25 = sext i32 %24 to i64
  %26 = getelementptr inbounds i8, ptr %23, i64 %25
  %27 = load i8, ptr %26, align 1, !tbaa !31
  %28 = sext i8 %27 to i32
  %29 = icmp eq i32 %22, %28
  br i1 %29, label %30, label %31

30:                                               ; preds = %16
  br label %59

31:                                               ; preds = %16
  %32 = load ptr, ptr %5, align 8, !tbaa !32
  %33 = load i32, ptr %8, align 4, !tbaa !12
  %34 = sext i32 %33 to i64
  %35 = getelementptr inbounds i8, ptr %32, i64 %34
  %36 = load i8, ptr %35, align 1, !tbaa !31
  %37 = sext i8 %36 to i32
  %38 = icmp eq i32 %37, 45
  br i1 %38, label %39, label %40

39:                                               ; preds = %31
  store i32 0, ptr %10, align 4, !tbaa !12
  br label %51

40:                                               ; preds = %31
  %41 = load ptr, ptr %6, align 8, !tbaa !32
  %42 = load i32, ptr %8, align 4, !tbaa !12
  %43 = sext i32 %42 to i64
  %44 = getelementptr inbounds i8, ptr %41, i64 %43
  %45 = load i8, ptr %44, align 1, !tbaa !31
  %46 = sext i8 %45 to i32
  %47 = icmp eq i32 %46, 45
  br i1 %47, label %48, label %49

48:                                               ; preds = %40
  store i32 0, ptr %9, align 4, !tbaa !12
  br label %50

49:                                               ; preds = %40
  store i32 0, ptr %4, align 4
  store i32 1, ptr %11, align 4
  br label %67

50:                                               ; preds = %48
  br label %51

51:                                               ; preds = %50, %39
  %52 = load i32, ptr %9, align 4, !tbaa !12
  %53 = icmp ne i32 %52, 0
  br i1 %53, label %58, label %54

54:                                               ; preds = %51
  %55 = load i32, ptr %10, align 4, !tbaa !12
  %56 = icmp ne i32 %55, 0
  br i1 %56, label %58, label %57

57:                                               ; preds = %54
  store i32 0, ptr %4, align 4
  store i32 1, ptr %11, align 4
  br label %67

58:                                               ; preds = %54, %51
  br label %59

59:                                               ; preds = %58, %30
  %60 = load i32, ptr %8, align 4, !tbaa !12
  %61 = add nsw i32 %60, 1
  store i32 %61, ptr %8, align 4, !tbaa !12
  br label %12, !llvm.loop !105

62:                                               ; preds = %12
  %63 = load i32, ptr %10, align 4, !tbaa !12
  %64 = shl i32 %63, 1
  %65 = load i32, ptr %9, align 4, !tbaa !12
  %66 = or i32 %64, %65
  store i32 %66, ptr %4, align 4
  store i32 1, ptr %11, align 4
  br label %67

67:                                               ; preds = %62, %57, %49
  call void @llvm.lifetime.end.p0(i64 4, ptr %10) #10
  call void @llvm.lifetime.end.p0(i64 4, ptr %9) #10
  call void @llvm.lifetime.end.p0(i64 4, ptr %8) #10
  %68 = load i32, ptr %4, align 4
  ret i32 %68
}

; Function Attrs: inlinehint nounwind uwtable
define internal i32 @Abc_ObjFaninNum(ptr noundef %0) #2 {
  %2 = alloca ptr, align 8
  store ptr %0, ptr %2, align 8, !tbaa !29
  %3 = load ptr, ptr %2, align 8, !tbaa !29
  %4 = getelementptr inbounds nuw %struct.Abc_Obj_t_, ptr %3, i32 0, i32 4
  %5 = getelementptr inbounds nuw %struct.Vec_Int_t_, ptr %4, i32 0, i32 1
  %6 = load i32, ptr %5, align 4, !tbaa !96
  ret i32 %6
}

; Function Attrs: nounwind uwtable
define i32 @Abc_NodeMakeSCCFree(ptr noundef %0) #0 {
  %2 = alloca i32, align 4
  %3 = alloca ptr, align 8
  %4 = alloca ptr, align 8
  %5 = alloca ptr, align 8
  %6 = alloca ptr, align 8
  %7 = alloca ptr, align 8
  %8 = alloca i32, align 4
  %9 = alloca i32, align 4
  %10 = alloca i32, align 4
  %11 = alloca i32, align 4
  store ptr %0, ptr %3, align 8, !tbaa !29
  call void @llvm.lifetime.start.p0(i64 8, ptr %4) #10
  %12 = load ptr, ptr %3, align 8, !tbaa !29
  %13 = getelementptr inbounds nuw %struct.Abc_Obj_t_, ptr %12, i32 0, i32 6
  %14 = load ptr, ptr %13, align 8, !tbaa !31
  store ptr %14, ptr %4, align 8, !tbaa !32
  call void @llvm.lifetime.start.p0(i64 8, ptr %5) #10
  call void @llvm.lifetime.start.p0(i64 8, ptr %6) #10
  call void @llvm.lifetime.start.p0(i64 8, ptr %7) #10
  call void @llvm.lifetime.start.p0(i64 4, ptr %8) #10
  %15 = load ptr, ptr %3, align 8, !tbaa !29
  %16 = call i32 @Abc_ObjFaninNum(ptr noundef %15)
  store i32 %16, ptr %8, align 4, !tbaa !12
  call void @llvm.lifetime.start.p0(i64 4, ptr %9) #10
  call void @llvm.lifetime.start.p0(i64 4, ptr %10) #10
  store i32 0, ptr %10, align 4, !tbaa !12
  %17 = load ptr, ptr %4, align 8, !tbaa !32
  store ptr %17, ptr %5, align 8, !tbaa !32
  br label %18

18:                                               ; preds = %77, %1
  %19 = load ptr, ptr %5, align 8, !tbaa !32
  %20 = load i8, ptr %19, align 1, !tbaa !31
  %21 = icmp ne i8 %20, 0
  br i1 %21, label %22, label %83

22:                                               ; preds = %18
  %23 = load ptr, ptr %5, align 8, !tbaa !32
  %24 = load i32, ptr %8, align 4, !tbaa !12
  %25 = sext i32 %24 to i64
  %26 = getelementptr inbounds i8, ptr %23, i64 %25
  %27 = getelementptr inbounds i8, ptr %26, i64 3
  store ptr %27, ptr %6, align 8, !tbaa !32
  br label %28

28:                                               ; preds = %70, %22
  %29 = load ptr, ptr %6, align 8, !tbaa !32
  %30 = load i8, ptr %29, align 1, !tbaa !31
  %31 = icmp ne i8 %30, 0
  br i1 %31, label %32, label %76

32:                                               ; preds = %28
  %33 = load ptr, ptr %5, align 8, !tbaa !32
  %34 = getelementptr inbounds i8, ptr %33, i64 0
  %35 = load i8, ptr %34, align 1, !tbaa !31
  %36 = sext i8 %35 to i32
  %37 = icmp eq i32 %36, 122
  br i1 %37, label %44, label %38

38:                                               ; preds = %32
  %39 = load ptr, ptr %6, align 8, !tbaa !32
  %40 = getelementptr inbounds i8, ptr %39, i64 0
  %41 = load i8, ptr %40, align 1, !tbaa !31
  %42 = sext i8 %41 to i32
  %43 = icmp eq i32 %42, 122
  br i1 %43, label %44, label %45

44:                                               ; preds = %38, %32
  br label %70

45:                                               ; preds = %38
  %46 = load ptr, ptr %5, align 8, !tbaa !32
  %47 = load ptr, ptr %6, align 8, !tbaa !32
  %48 = load i32, ptr %8, align 4, !tbaa !12
  %49 = call i32 @Abc_CubeContain(ptr noundef %46, ptr noundef %47, i32 noundef %48)
  store i32 %49, ptr %9, align 4, !tbaa !12
  %50 = load i32, ptr %9, align 4, !tbaa !12
  %51 = icmp sgt i32 %50, 0
  %52 = zext i1 %51 to i32
  %53 = load i32, ptr %10, align 4, !tbaa !12
  %54 = add nsw i32 %53, %52
  store i32 %54, ptr %10, align 4, !tbaa !12
  %55 = load i32, ptr %9, align 4, !tbaa !12
  %56 = and i32 %55, 1
  %57 = icmp ne i32 %56, 0
  br i1 %57, label %58, label %61

58:                                               ; preds = %45
  %59 = load ptr, ptr %6, align 8, !tbaa !32
  %60 = getelementptr inbounds i8, ptr %59, i64 0
  store i8 122, ptr %60, align 1, !tbaa !31
  br label %69

61:                                               ; preds = %45
  %62 = load i32, ptr %9, align 4, !tbaa !12
  %63 = and i32 %62, 2
  %64 = icmp ne i32 %63, 0
  br i1 %64, label %65, label %68

65:                                               ; preds = %61
  %66 = load ptr, ptr %5, align 8, !tbaa !32
  %67 = getelementptr inbounds i8, ptr %66, i64 0
  store i8 122, ptr %67, align 1, !tbaa !31
  br label %68

68:                                               ; preds = %65, %61
  br label %69

69:                                               ; preds = %68, %58
  br label %70

70:                                               ; preds = %69, %44
  %71 = load i32, ptr %8, align 4, !tbaa !12
  %72 = add nsw i32 %71, 3
  %73 = load ptr, ptr %6, align 8, !tbaa !32
  %74 = sext i32 %72 to i64
  %75 = getelementptr inbounds i8, ptr %73, i64 %74
  store ptr %75, ptr %6, align 8, !tbaa !32
  br label %28, !llvm.loop !102

76:                                               ; preds = %28
  br label %77

77:                                               ; preds = %76
  %78 = load i32, ptr %8, align 4, !tbaa !12
  %79 = add nsw i32 %78, 3
  %80 = load ptr, ptr %5, align 8, !tbaa !32
  %81 = sext i32 %79 to i64
  %82 = getelementptr inbounds i8, ptr %80, i64 %81
  store ptr %82, ptr %5, align 8, !tbaa !32
  br label %18, !llvm.loop !103

83:                                               ; preds = %18
  %84 = load i32, ptr %10, align 4, !tbaa !12
  %85 = icmp eq i32 %84, 0
  br i1 %85, label %86, label %87

86:                                               ; preds = %83
  store i32 0, ptr %2, align 4
  store i32 1, ptr %11, align 4
  br label %122

87:                                               ; preds = %83
  %88 = load ptr, ptr %3, align 8, !tbaa !29
  %89 = getelementptr inbounds nuw %struct.Abc_Obj_t_, ptr %88, i32 0, i32 6
  %90 = load ptr, ptr %89, align 8, !tbaa !31
  store ptr %90, ptr %7, align 8, !tbaa !32
  %91 = load ptr, ptr %4, align 8, !tbaa !32
  store ptr %91, ptr %5, align 8, !tbaa !32
  br label %92

92:                                               ; preds = %114, %87
  %93 = load ptr, ptr %5, align 8, !tbaa !32
  %94 = load i8, ptr %93, align 1, !tbaa !31
  %95 = icmp ne i8 %94, 0
  br i1 %95, label %96, label %120

96:                                               ; preds = %92
  %97 = load ptr, ptr %5, align 8, !tbaa !32
  %98 = getelementptr inbounds i8, ptr %97, i64 0
  %99 = load i8, ptr %98, align 1, !tbaa !31
  %100 = sext i8 %99 to i32
  %101 = icmp eq i32 %100, 122
  br i1 %101, label %102, label %103

102:                                              ; preds = %96
  br label %114

103:                                              ; preds = %96
  %104 = load ptr, ptr %7, align 8, !tbaa !32
  %105 = load ptr, ptr %5, align 8, !tbaa !32
  %106 = load i32, ptr %8, align 4, !tbaa !12
  %107 = add nsw i32 %106, 3
  %108 = sext i32 %107 to i64
  call void @llvm.memcpy.p0.p0.i64(ptr align 1 %104, ptr align 1 %105, i64 %108, i1 false)
  %109 = load i32, ptr %8, align 4, !tbaa !12
  %110 = add nsw i32 %109, 3
  %111 = load ptr, ptr %7, align 8, !tbaa !32
  %112 = sext i32 %110 to i64
  %113 = getelementptr inbounds i8, ptr %111, i64 %112
  store ptr %113, ptr %7, align 8, !tbaa !32
  br label %114

114:                                              ; preds = %103, %102
  %115 = load i32, ptr %8, align 4, !tbaa !12
  %116 = add nsw i32 %115, 3
  %117 = load ptr, ptr %5, align 8, !tbaa !32
  %118 = sext i32 %116 to i64
  %119 = getelementptr inbounds i8, ptr %117, i64 %118
  store ptr %119, ptr %5, align 8, !tbaa !32
  br label %92, !llvm.loop !104

120:                                              ; preds = %92
  %121 = load ptr, ptr %7, align 8, !tbaa !32
  store i8 0, ptr %121, align 1, !tbaa !31
  store i32 1, ptr %2, align 4
  store i32 1, ptr %11, align 4
  br label %122

122:                                              ; preds = %120, %86
  call void @llvm.lifetime.end.p0(i64 4, ptr %10) #10
  call void @llvm.lifetime.end.p0(i64 4, ptr %9) #10
  call void @llvm.lifetime.end.p0(i64 4, ptr %8) #10
  call void @llvm.lifetime.end.p0(i64 8, ptr %7) #10
  call void @llvm.lifetime.end.p0(i64 8, ptr %6) #10
  call void @llvm.lifetime.end.p0(i64 8, ptr %5) #10
  call void @llvm.lifetime.end.p0(i64 8, ptr %4) #10
  %123 = load i32, ptr %2, align 4
  ret i32 %123
}