; Function Attrs: nofree norecurse nosync nounwind memory(readwrite, inaccessiblemem: none) uwtable
define range(i32 0, 2) i32 @Abc_NodeMakeSCCFree(ptr noundef readonly captures(none) %0) local_unnamed_addr #7 {
  %2 = getelementptr inbounds nuw i8, ptr %0, i64 56
  %3 = load ptr, ptr %2, align 8, !tbaa !35
  %4 = getelementptr i8, ptr %0, i64 28
  %.val = load i32, ptr %4, align 4, !tbaa !78
  %.val.fr = freeze i32 %.val
  %5 = load i8, ptr %3, align 1, !tbaa !35
  %.not59 = icmp eq i8 %5, 0
  br i1 %.not59, label %._crit_edge64.thread, label %.lr.ph63

.lr.ph63:                                         ; preds = %1
  %6 = sext i32 %.val.fr to i64
  %7 = icmp sgt i32 %.val.fr, 0
  %wide.trip.count.i = zext nneg i32 %.val.fr to i64
  br i1 %7, label %.lr.ph63.split.us, label %.lr.ph63.split

.lr.ph63.split.us:                                ; preds = %.lr.ph63, %._crit_edge.split.us.us
  %.061.us = phi i32 [ %.2.us.us, %._crit_edge.split.us.us ], [ 0, %.lr.ph63 ]
  %.03660.us = phi ptr [ %.04055.us, %._crit_edge.split.us.us ], [ %3, %.lr.ph63 ]
  %8 = getelementptr i8, ptr %.03660.us, i64 %6
  %.04055.us = getelementptr i8, ptr %8, i64 3
  %9 = load i8, ptr %.04055.us, align 1, !tbaa !35
  %.not4456.us = icmp eq i8 %9, 0
  br i1 %.not4456.us, label %._crit_edge64, label %.lr.ph.us

._crit_edge.split.us.us:                          ; preds = %.thread.us.us
  %.pre68 = load i8, ptr %.04055.us, align 1, !tbaa !35
  %10 = icmp eq i8 %.pre68, 0
  br i1 %10, label %._crit_edge64, label %.lr.ph63.split.us, !llvm.loop !88

.lr.ph.us:                                        ; preds = %.lr.ph63.split.us, %.thread.us.us
  %11 = phi i8 [ %36, %.thread.us.us ], [ %9, %.lr.ph63.split.us ]
  %.04058.us.us = phi ptr [ %.040.us.us, %.thread.us.us ], [ %.04055.us, %.lr.ph63.split.us ]
  %.157.us.us = phi i32 [ %.2.us.us, %.thread.us.us ], [ %.061.us, %.lr.ph63.split.us ]
  %12 = load i8, ptr %.03660.us, align 1, !tbaa !35
  %13 = icmp eq i8 %12, 122
  %14 = icmp eq i8 %11, 122
  %or.cond.us.us = or i1 %14, %13
  br i1 %or.cond.us.us, label %.thread.us.us, label %.lr.ph.i.us.us

.lr.ph.i.us.us:                                   ; preds = %.lr.ph.us, %27
  %indvars.iv.i.us.us = phi i64 [ %indvars.iv.next.i.us.us, %27 ], [ 0, %.lr.ph.us ]
  %.027.i.us.us = phi i32 [ %.1.i.us.us, %27 ], [ 1, %.lr.ph.us ]
  %.01626.i.us.us = phi i32 [ %.117.i.us.us, %27 ], [ 1, %.lr.ph.us ]
  %15 = getelementptr inbounds nuw i8, ptr %.03660.us, i64 %indvars.iv.i.us.us
  %16 = load i8, ptr %15, align 1, !tbaa !35
  %17 = getelementptr inbounds nuw i8, ptr %.04058.us.us, i64 %indvars.iv.i.us.us
  %18 = load i8, ptr %17, align 1, !tbaa !35
  %19 = icmp eq i8 %16, %18
  br i1 %19, label %27, label %20

20:                                               ; preds = %.lr.ph.i.us.us
  %21 = icmp eq i8 %16, 45
  br i1 %21, label %24, label %22

22:                                               ; preds = %20
  %23 = icmp eq i8 %18, 45
  br i1 %23, label %24, label %.thread.us.us

24:                                               ; preds = %22, %20
  %.218.i.us.us = phi i32 [ %.01626.i.us.us, %20 ], [ 0, %22 ]
  %.2.i.us.us = phi i32 [ 0, %20 ], [ %.027.i.us.us, %22 ]
  %25 = icmp ne i32 %.218.i.us.us, 0
  %26 = icmp ne i32 %.2.i.us.us, 0
  %or.cond.i.us.us = select i1 %25, i1 true, i1 %26
  br i1 %or.cond.i.us.us, label %27, label %.thread.us.us

27:                                               ; preds = %24, %.lr.ph.i.us.us
  %.117.i.us.us = phi i32 [ %.01626.i.us.us, %.lr.ph.i.us.us ], [ %.218.i.us.us, %24 ]
  %.1.i.us.us = phi i32 [ %.027.i.us.us, %.lr.ph.i.us.us ], [ %.2.i.us.us, %24 ]
  %indvars.iv.next.i.us.us = add nuw nsw i64 %indvars.iv.i.us.us, 1
  %exitcond.not.i.us.us = icmp eq i64 %indvars.iv.next.i.us.us, %wide.trip.count.i
  br i1 %exitcond.not.i.us.us, label %Abc_CubeContain.exit.us.us, label %.lr.ph.i.us.us, !llvm.loop !89

Abc_CubeContain.exit.us.us:                       ; preds = %27
  %28 = shl nuw nsw i32 %.1.i.us.us, 1
  %29 = or i32 %28, %.117.i.us.us
  %30 = icmp ne i32 %29, 0
  %31 = zext i1 %30 to i32
  %32 = add nsw i32 %.157.us.us, %31
  %33 = and i32 %.117.i.us.us, 1
  %.not45.us.us = icmp eq i32 %33, 0
  br i1 %.not45.us.us, label %34, label %.thread.us.us.sink.split

34:                                               ; preds = %Abc_CubeContain.exit.us.us
  %.not46.us.us = icmp eq i32 %29, 0
  br i1 %.not46.us.us, label %.thread.us.us, label %.thread.us.us.sink.split

.thread.us.us.sink.split:                         ; preds = %34, %Abc_CubeContain.exit.us.us
  %.03660.us.sink = phi ptr [ %.04058.us.us, %Abc_CubeContain.exit.us.us ], [ %.03660.us, %34 ]
  store i8 122, ptr %.03660.us.sink, align 1, !tbaa !35
  br label %.thread.us.us

.thread.us.us:                                    ; preds = %22, %24, %.thread.us.us.sink.split, %34, %.lr.ph.us
  %.2.us.us = phi i32 [ %.157.us.us, %.lr.ph.us ], [ %32, %34 ], [ %32, %.thread.us.us.sink.split ], [ %.157.us.us, %24 ], [ %.157.us.us, %22 ]
  %35 = getelementptr i8, ptr %.04058.us.us, i64 %6
  %.040.us.us = getelementptr i8, ptr %35, i64 3
  %36 = load i8, ptr %.040.us.us, align 1, !tbaa !35
  %.not44.us.us = icmp eq i8 %36, 0
  br i1 %.not44.us.us, label %._crit_edge.split.us.us, label %.lr.ph.us, !llvm.loop !90

.lr.ph63.split:                                   ; preds = %.lr.ph63, %._crit_edge.split
  %.061 = phi i32 [ %.2, %._crit_edge.split ], [ 0, %.lr.ph63 ]
  %.03660 = phi ptr [ %.04055, %._crit_edge.split ], [ %3, %.lr.ph63 ]
  %37 = getelementptr i8, ptr %.03660, i64 %6
  %.04055 = getelementptr i8, ptr %37, i64 3
  %38 = load i8, ptr %.04055, align 1, !tbaa !35
  %.not4456 = icmp eq i8 %38, 0
  br i1 %.not4456, label %._crit_edge64, label %.lr.ph

.lr.ph:                                           ; preds = %.lr.ph63.split, %.thread
  %39 = phi i8 [ %45, %.thread ], [ %38, %.lr.ph63.split ]
  %.04058 = phi ptr [ %.040, %.thread ], [ %.04055, %.lr.ph63.split ]
  %.157 = phi i32 [ %.2, %.thread ], [ %.061, %.lr.ph63.split ]
  %40 = load i8, ptr %.03660, align 1, !tbaa !35
  %41 = icmp eq i8 %40, 122
  %42 = icmp eq i8 %39, 122
  %or.cond = or i1 %42, %41
  br i1 %or.cond, label %.thread, label %Abc_CubeContain.exit.thread50

Abc_CubeContain.exit.thread50:                    ; preds = %.lr.ph
  %43 = add nsw i32 %.157, 1
  store i8 122, ptr %.04058, align 1, !tbaa !35
  br label %.thread

.thread:                                          ; preds = %Abc_CubeContain.exit.thread50, %.lr.ph
  %.2 = phi i32 [ %.157, %.lr.ph ], [ %43, %Abc_CubeContain.exit.thread50 ]
  %44 = getelementptr i8, ptr %.04058, i64 %6
  %.040 = getelementptr i8, ptr %44, i64 3
  %45 = load i8, ptr %.040, align 1, !tbaa !35
  %.not44 = icmp eq i8 %45, 0
  br i1 %.not44, label %._crit_edge.split, label %.lr.ph, !llvm.loop !90

._crit_edge.split:                                ; preds = %.thread
  %.pre = load i8, ptr %.04055, align 1, !tbaa !35
  %46 = icmp eq i8 %.pre, 0
  br i1 %46, label %._crit_edge64, label %.lr.ph63.split, !llvm.loop !88

._crit_edge64:                                    ; preds = %.lr.ph63.split, %._crit_edge.split, %.lr.ph63.split.us, %._crit_edge.split.us.us
  %.0.lcssa = phi i32 [ %.061.us, %.lr.ph63.split.us ], [ %.2.us.us, %._crit_edge.split.us.us ], [ %.061, %.lr.ph63.split ], [ %.2, %._crit_edge.split ]
  %47 = icmp eq i32 %.0.lcssa, 0
  br i1 %47, label %._crit_edge64.thread, label %48

48:                                               ; preds = %._crit_edge64
  %49 = load ptr, ptr %2, align 8, !tbaa !35
  %50 = add nsw i32 %.val.fr, 3
  %51 = sext i32 %50 to i64
  %52 = sext i32 %.val.fr to i64
  br label %53

53:                                               ; preds = %57, %48
  %.038 = phi ptr [ %49, %48 ], [ %.139, %57 ]
  %.137 = phi ptr [ %3, %48 ], [ %59, %57 ]
  %54 = load i8, ptr %.137, align 1, !tbaa !35
  switch i8 %54, label %55 [
    i8 0, label %60
    i8 122, label %57
  ]

55:                                               ; preds = %53
  tail call void @llvm.memcpy.p0.p0.i64(ptr align 1 %.038, ptr nonnull align 1 %.137, i64 %51, i1 false)
  %56 = getelementptr inbounds i8, ptr %.038, i64 %51
  br label %57

57:                                               ; preds = %53, %55
  %.139 = phi ptr [ %56, %55 ], [ %.038, %53 ]
  %58 = getelementptr i8, ptr %.137, i64 %52
  %59 = getelementptr i8, ptr %58, i64 3
  br label %53, !llvm.loop !91

60:                                               ; preds = %53
  store i8 0, ptr %.038, align 1, !tbaa !35
  br label %._crit_edge64.thread

._crit_edge64.thread:                             ; preds = %1, %._crit_edge64, %60
  %.035 = phi i32 [ 1, %60 ], [ 0, %._crit_edge64 ], [ 0, %1 ]
  ret i32 %.035
}